target datalayout = "e-m:e-p270:32:32-p271:32:32-p272:64:64-i64:64-i128:128-f80:128-n8:16:32:64-S128"
target triple = "x86_64-pc-linux-gnu"

%struct.AVFilterContext = type { ptr, ptr, ptr, ptr, ptr, i32, ptr, ptr, i32, ptr, ptr, i32, i32, ptr, ptr, ptr, ptr, i32, ptr, i32, i32 }
%struct.FFFilter = type { %struct.AVFilter, i8, i8, i8, ptr, ptr, ptr, %union.anon.1, i32, i32, ptr, ptr }
%struct.AVFilter = type { ptr, ptr, ptr, ptr, ptr, i32 }
%union.anon.1 = type { ptr }

@.str.18 = private unnamed_addr constant [5 x i8] c"ping\00", align 1
@.str.19 = private unnamed_addr constant [17 x i8] c"pong from:%s %s\0A\00", align 1
@.str.20 = private unnamed_addr constant [3 x i8] c"%s\00", align 1
@.str.21 = private unnamed_addr constant [7 x i8] c"enable\00", align 1

; Function Attrs: inlinehint nounwind uwtable
define internal ptr @fffilter(ptr noundef %0) #4 {
  %2 = alloca ptr, align 8
  store ptr %0, ptr %2, align 8, !tbaa !119
  %3 = load ptr, ptr %2, align 8, !tbaa !119
  ret ptr %3
}

; Function Attrs: inlinehint nounwind uwtable
define internal ptr @fffilterctx(ptr noundef %0) #4 {
  %2 = alloca ptr, align 8
  store ptr %0, ptr %2, align 8, !tbaa !4
  %3 = load ptr, ptr %2, align 8, !tbaa !4
  ret ptr %3
}

; Function Attrs: nounwind uwtable
define i32 @avfilter_process_command(ptr noundef %0, ptr noundef %1, ptr noundef %2, ptr noundef %3, i32 noundef %4, i32 noundef %5) #0 {
  %7 = alloca i32, align 4
  %8 = alloca ptr, align 8
  %9 = alloca ptr, align 8
  %10 = alloca ptr, align 8
  %11 = alloca ptr, align 8
  %12 = alloca i32, align 4
  %13 = alloca i32, align 4
  %14 = alloca [256 x i8], align 16
  store ptr %0, ptr %8, align 8, !tbaa !4
  store ptr %1, ptr %9, align 8, !tbaa !124
  store ptr %2, ptr %10, align 8, !tbaa !124
  store ptr %3, ptr %11, align 8, !tbaa !124
  store i32 %4, ptr %12, align 4, !tbaa !19
  store i32 %5, ptr %13, align 4, !tbaa !19
  %15 = load ptr, ptr %9, align 8, !tbaa !124
  %16 = call i32 @strcmp(ptr noundef %15, ptr noundef @.str.18) #13
  %17 = icmp ne i32 %16, 0
  br i1 %17, label %43, label %18

18:                                               ; preds = %6
  call void @llvm.lifetime.start.p0(i64 256, ptr %14) #11
  call void @llvm.memset.p0.i64(ptr align 16 %14, i8 0, i64 256, i1 false)
  %19 = load ptr, ptr %11, align 8, !tbaa !124
  %20 = icmp ne ptr %19, null
  br i1 %20, label %23, label %21

21:                                               ; preds = %18
  %22 = getelementptr inbounds [256 x i8], ptr %14, i64 0, i64 0
  store ptr %22, ptr %11, align 8, !tbaa !124
  store i32 256, ptr %12, align 4, !tbaa !19
  br label %23

23:                                               ; preds = %21, %18
  %24 = load ptr, ptr %11, align 8, !tbaa !124
  %25 = load i32, ptr %12, align 4, !tbaa !19
  %26 = sext i32 %25 to i64
  %27 = load ptr, ptr %8, align 8, !tbaa !4
  %28 = getelementptr inbounds nuw %struct.AVFilterContext, ptr %27, i32 0, i32 1
  %29 = load ptr, ptr %28, align 8, !tbaa !110
  %30 = getelementptr inbounds nuw %struct.AVFilter, ptr %29, i32 0, i32 0
  %31 = load ptr, ptr %30, align 8, !tbaa !125
  %32 = load ptr, ptr %8, align 8, !tbaa !4
  %33 = getelementptr inbounds nuw %struct.AVFilterContext, ptr %32, i32 0, i32 2
  %34 = load ptr, ptr %33, align 8, !tbaa !46
  %35 = call i64 (ptr, i64, ptr, ...) @av_strlcatf(ptr noundef %24, i64 noundef %26, ptr noundef @.str.19, ptr noundef %31, ptr noundef %34)
  %36 = load ptr, ptr %11, align 8, !tbaa !124
  %37 = getelementptr inbounds [256 x i8], ptr %14, i64 0, i64 0
  %38 = icmp eq ptr %36, %37
  br i1 %38, label %39, label %42

39:                                               ; preds = %23
  %40 = load ptr, ptr %8, align 8, !tbaa !4
  %41 = load ptr, ptr %11, align 8, !tbaa !124
  call void (ptr, i32, ptr, ...) @av_log(ptr noundef %40, i32 noundef 32, ptr noundef @.str.20, ptr noundef %41)
  br label %42

42:                                               ; preds = %39, %23
  store i32 0, ptr %7, align 4
  call void @llvm.lifetime.end.p0(i64 256, ptr %14) #11
  br label %77

43:                                               ; preds = %6
  %44 = load ptr, ptr %9, align 8, !tbaa !124
  %45 = call i32 @strcmp(ptr noundef %44, ptr noundef @.str.21) #13
  %46 = icmp ne i32 %45, 0
  br i1 %46, label %52, label %47

47:                                               ; preds = %43
  %48 = load ptr, ptr %8, align 8, !tbaa !4
  %49 = call ptr @fffilterctx(ptr noundef %48)
  %50 = load ptr, ptr %10, align 8, !tbaa !124
  %51 = call i32 @set_enable_expr(ptr noundef %49, ptr noundef %50)
  store i32 %51, ptr %7, align 4
  br label %77

52:                                               ; preds = %43
  %53 = load ptr, ptr %8, align 8, !tbaa !4
  %54 = getelementptr inbounds nuw %struct.AVFilterContext, ptr %53, i32 0, i32 1
  %55 = load ptr, ptr %54, align 8, !tbaa !110
  %56 = call ptr @fffilter(ptr noundef %55)
  %57 = getelementptr inbounds nuw %struct.FFFilter, ptr %56, i32 0, i32 10
  %58 = load ptr, ptr %57, align 8, !tbaa !126
  %59 = icmp ne ptr %58, null
  br i1 %59, label %60, label %74

60:                                               ; preds = %52
  %61 = load ptr, ptr %8, align 8, !tbaa !4
  %62 = getelementptr inbounds nuw %struct.AVFilterContext, ptr %61, i32 0, i32 1
  %63 = load ptr, ptr %62, align 8, !tbaa !110
  %64 = call ptr @fffilter(ptr noundef %63)
  %65 = getelementptr inbounds nuw %struct.FFFilter, ptr %64, i32 0, i32 10
  %66 = load ptr, ptr %65, align 8, !tbaa !126
  %67 = load ptr, ptr %8, align 8, !tbaa !4
  %68 = load ptr, ptr %9, align 8, !tbaa !124
  %69 = load ptr, ptr %10, align 8, !tbaa !124
  %70 = load ptr, ptr %11, align 8, !tbaa !124
  %71 = load i32, ptr %12, align 4, !tbaa !19
  %72 = load i32, ptr %13, align 4, !tbaa !19
  %73 = call i32 %66(ptr noundef %67, ptr noundef %68, ptr noundef %69, ptr noundef %70, i32 noundef %71, i32 noundef %72)
  store i32 %73, ptr %7, align 4
  br label %77

74:                                               ; preds = %52
  br label %75

75:                                               ; preds = %74
  br label %76

76:                                               ; preds = %75
  store i32 -38, ptr %7, align 4
  br label %77

77:                                               ; preds = %76, %60, %47, %42
  %78 = load i32, ptr %7, align 4
  ret i32 %78
}