; Function Attrs: nounwind uwtable
define i32 @avfilter_process_command(ptr noundef %0, ptr noundef %1, ptr noundef %2, ptr noundef %3, i32 noundef %4, i32 noundef %5) local_unnamed_addr #0 {
  %7 = alloca [256 x i8], align 16
  %8 = tail call i32 @strcmp(ptr noundef nonnull dereferenceable(1) %1, ptr noundef nonnull dereferenceable(5) @.str.18) #18
  %.not = icmp eq i32 %8, 0
  br i1 %.not, label %9, label %21

9:                                                ; preds = %6
  call void @llvm.lifetime.start.p0(i64 256, ptr nonnull %7) #15
  call void @llvm.memset.p0.i64(ptr noundef nonnull align 16 dereferenceable(256) %7, i8 0, i64 256, i1 false)
  %.not23 = icmp eq ptr %3, null
  %spec.select = select i1 %.not23, ptr %7, ptr %3
  %10 = sext i32 %4 to i64
  %11 = select i1 %.not23, i64 256, i64 %10
  %12 = getelementptr inbounds nuw i8, ptr %0, i64 8
  %13 = load ptr, ptr %12, align 8, !tbaa !92
  %14 = load ptr, ptr %13, align 8, !tbaa !102
  %15 = getelementptr inbounds nuw i8, ptr %0, i64 16
  %16 = load ptr, ptr %15, align 8, !tbaa !37
  %17 = call i64 (ptr, i64, ptr, ...) @av_strlcatf(ptr noundef nonnull %spec.select, i64 noundef %11, ptr noundef nonnull @.str.19, ptr noundef %14, ptr noundef %16) #15
  %18 = icmp eq ptr %spec.select, %7
  br i1 %18, label %19, label %20

19:                                               ; preds = %9
  call void (ptr, i32, ptr, ...) @av_log(ptr noundef nonnull %0, i32 noundef 32, ptr noundef nonnull @.str.20, ptr noundef nonnull %spec.select) #15
  br label %20

20:                                               ; preds = %19, %9
  call void @llvm.lifetime.end.p0(i64 256, ptr nonnull %7) #15
  br label %32

21:                                               ; preds = %6
  %22 = tail call i32 @strcmp(ptr noundef nonnull dereferenceable(1) %1, ptr noundef nonnull dereferenceable(7) @.str.21) #18
  %.not24 = icmp eq i32 %22, 0
  br i1 %.not24, label %23, label %25

23:                                               ; preds = %21
  %24 = tail call fastcc i32 @set_enable_expr(ptr noundef %0, ptr noundef %2)
  br label %32

25:                                               ; preds = %21
  %26 = getelementptr inbounds nuw i8, ptr %0, i64 8
  %27 = load ptr, ptr %26, align 8, !tbaa !92
  %28 = getelementptr inbounds nuw i8, ptr %27, i64 96
  %29 = load ptr, ptr %28, align 8, !tbaa !103
  %.not25 = icmp eq ptr %29, null
  br i1 %.not25, label %32, label %30

30:                                               ; preds = %25
  %31 = tail call i32 %29(ptr noundef nonnull %0, ptr noundef nonnull %1, ptr noundef %2, ptr noundef %3, i32 noundef %4, i32 noundef %5) #15
  br label %32

32:                                               ; preds = %25, %30, %23, %20
  %.0 = phi i32 [ %31, %30 ], [ %24, %23 ], [ 0, %20 ], [ -38, %25 ]
  ret i32 %.0
}